; Function Attrs: nounwind sspstrong uwtable
define noundef i64 @rsock_freeaddrinfo(i64 noundef %0) #0 {
  %2 = inttoptr i64 %0 to ptr
  %3 = getelementptr inbounds nuw i8, ptr %2, i64 8
  %4 = load i32, ptr %3, align 8, !tbaa !6
  %.not.i = icmp eq i32 %4, 0
  %5 = load ptr, ptr %2, align 8, !tbaa !13
  %.not11.i = icmp eq ptr %5, null
  br i1 %.not.i, label %6, label %8

6:                                                ; preds = %1
  br i1 %.not11.i, label %rb_freeaddrinfo.exit, label %7

7:                                                ; preds = %6
  tail call void @freeaddrinfo(ptr noundef nonnull %5) #21
  br label %rb_freeaddrinfo.exit

8:                                                ; preds = %1
  br i1 %.not11.i, label %rb_freeaddrinfo.exit, label %.lr.ph.i

.lr.ph.i:                                         ; preds = %8, %.lr.ph.i
  %.014.i = phi ptr [ %10, %.lr.ph.i ], [ %5, %8 ]
  %9 = getelementptr inbounds nuw i8, ptr %.014.i, i64 40
  %10 = load ptr, ptr %9, align 8, !tbaa !14
  %11 = getelementptr inbounds nuw i8, ptr %.014.i, i64 24
  %12 = load ptr, ptr %11, align 8, !tbaa !18
  tail call void @ruby_xfree(ptr noundef %12) #21
  tail call void @ruby_xfree(ptr noundef nonnull %.014.i) #21
  %.not12.i = icmp eq ptr %10, null
  br i1 %.not12.i, label %rb_freeaddrinfo.exit, label %.lr.ph.i, !llvm.loop !19

rb_freeaddrinfo.exit:                             ; preds = %.lr.ph.i, %6, %7, %8
  tail call void @ruby_xfree(ptr noundef nonnull %2) #21
  ret i64 4
}